target datalayout = "e-m:e-p270:32:32-p271:32:32-p272:64:64-i64:64-i128:128-f80:128-n8:16:32:64-S128"
target triple = "x86_64-pc-linux-gnu"

%class.TableRateStatistics = type { i64, i64, i64, double, i64, i64, i64, i64 }
%"struct.Atomic::PlatformAdd" = type { i8 }

; Function Attrs: mustprogress nounwind uwtable
define linkonce_odr hidden noundef i64 @_ZNK6Atomic11PlatformAddILm8EE14fetch_then_addImmEET_PVS3_T0_19atomic_memory_order(ptr noundef nonnull align 1 dereferenceable(1) %0, ptr noundef %1, i64 noundef %2, i32 noundef %3) #1 comdat align 2 {
  %5 = alloca ptr, align 8
  %6 = alloca ptr, align 8
  %7 = alloca i64, align 8
  %8 = alloca i32, align 4
  %9 = alloca i64, align 8
  store ptr %0, ptr %5, align 8
  store ptr %1, ptr %6, align 8
  store i64 %2, ptr %7, align 8
  store i32 %3, ptr %8, align 4
  %10 = load i64, ptr %7, align 8
  %11 = load ptr, ptr %6, align 8
  %12 = call i64 asm sideeffect "lock xaddq $0,($2)", "=r,0,r,~{cc},~{memory},~{dirflag},~{fpsr},~{flags}"(i64 %10, ptr %11) #4, !srcloc !6
  store i64 %12, ptr %9, align 8
  %13 = load i64, ptr %9, align 8
  ret i64 %13
}

; Function Attrs: mustprogress nounwind uwtable
define linkonce_odr hidden noundef i64 @_ZNK6Atomic11PlatformAddILm8EE14add_then_fetchImmEET_PVS3_T0_19atomic_memory_order(ptr noundef nonnull align 1 dereferenceable(1) %0, ptr noundef %1, i64 noundef %2, i32 noundef %3) #1 comdat align 2 {
  %5 = alloca ptr, align 8
  %6 = alloca ptr, align 8
  %7 = alloca i64, align 8
  %8 = alloca i32, align 4
  store ptr %0, ptr %5, align 8
  store ptr %1, ptr %6, align 8
  store i64 %2, ptr %7, align 8
  store i32 %3, ptr %8, align 4
  %9 = load ptr, ptr %5, align 8
  %10 = load ptr, ptr %6, align 8
  %11 = load i64, ptr %7, align 8
  %12 = load i32, ptr %8, align 4
  %13 = call noundef i64 @_ZNK6Atomic11PlatformAddILm8EE14fetch_then_addImmEET_PVS3_T0_19atomic_memory_order(ptr noundef nonnull align 1 dereferenceable(1) %9, ptr noundef %10, i64 noundef %11, i32 noundef %12)
  %14 = load i64, ptr %7, align 8
  %15 = add i64 %13, %14
  ret i64 %15
}

; Function Attrs: mustprogress nounwind uwtable
define linkonce_odr hidden noundef i64 @_ZN6Atomic7AddImplImmvE14add_then_fetchEPVmm19atomic_memory_order(ptr noundef %0, i64 noundef %1, i32 noundef %2) #1 comdat align 2 {
  %4 = alloca ptr, align 8
  %5 = alloca i64, align 8
  %6 = alloca i32, align 4
  %7 = alloca i64, align 8
  %8 = alloca %"struct.Atomic::PlatformAdd", align 1
  store ptr %0, ptr %4, align 8
  store i64 %1, ptr %5, align 8
  store i32 %2, ptr %6, align 4
  %9 = load i64, ptr %5, align 8
  store i64 %9, ptr %7, align 8
  %10 = load ptr, ptr %4, align 8
  %11 = load i64, ptr %7, align 8
  %12 = load i32, ptr %6, align 4
  %13 = call noundef i64 @_ZNK6Atomic11PlatformAddILm8EE14add_then_fetchImmEET_PVS3_T0_19atomic_memory_order(ptr noundef nonnull align 1 dereferenceable(1) %8, ptr noundef %10, i64 noundef %11, i32 noundef %12)
  ret i64 %13
}

; Function Attrs: mustprogress nounwind uwtable
define linkonce_odr hidden noundef i64 @_ZN6Atomic3addImmEET_PVS1_T0_19atomic_memory_order(ptr noundef %0, i64 noundef %1, i32 noundef %2) #1 comdat align 2 {
  %4 = alloca ptr, align 8
  %5 = alloca i64, align 8
  %6 = alloca i32, align 4
  store ptr %0, ptr %4, align 8
  store i64 %1, ptr %5, align 8
  store i32 %2, ptr %6, align 4
  %7 = load ptr, ptr %4, align 8
  %8 = load i64, ptr %5, align 8
  %9 = load i32, ptr %6, align 4
  %10 = call noundef i64 @_ZN6Atomic7AddImplImmvE14add_then_fetchEPVmm19atomic_memory_order(ptr noundef %7, i64 noundef %8, i32 noundef %9)
  ret i64 %10
}

; Function Attrs: mustprogress nounwind uwtable
define linkonce_odr hidden void @_ZN6Atomic3incImEEvPVT_19atomic_memory_order(ptr noundef %0, i32 noundef %1) #1 comdat align 2 {
  %3 = alloca ptr, align 8
  %4 = alloca i32, align 4
  store ptr %0, ptr %3, align 8
  store i32 %1, ptr %4, align 4
  %5 = load ptr, ptr %3, align 8
  %6 = load i32, ptr %4, align 4
  %7 = call noundef i64 @_ZN6Atomic3addImmEET_PVS1_T0_19atomic_memory_order(ptr noundef %5, i64 noundef 1, i32 noundef %6)
  ret void
}

; Function Attrs: mustprogress nounwind uwtable
define hidden void @_ZN19TableRateStatistics3addEv(ptr noundef nonnull align 8 dereferenceable(64) %0) #1 align 2 {
  %2 = alloca ptr, align 8
  store ptr %0, ptr %2, align 8
  %3 = load ptr, ptr %2, align 8
  %4 = call noundef zeroext i1 @_ZN3Jfr12is_recordingEv()
  br i1 %4, label %5, label %7

5:                                                ; preds = %1
  %6 = getelementptr inbounds %class.TableRateStatistics, ptr %3, i32 0, i32 0
  call void @_ZN6Atomic3incImEEvPVT_19atomic_memory_order(ptr noundef %6, i32 noundef 8)
  br label %7

7:                                                ; preds = %5, %1
  ret void
}