; Function Attrs: mustprogress nounwind uwtable
define hidden void @_ZN19TableRateStatistics3addEv(ptr noundef nonnull align 8 dereferenceable(64) %0) local_unnamed_addr #2 align 2 {
  %2 = tail call noundef zeroext i1 @_ZN3Jfr12is_recordingEv() #8
  br i1 %2, label %3, label %5

3:                                                ; preds = %1
  %4 = tail call noundef i64 asm sideeffect "lock xaddq $0,($2)", "=r,0,r,~{cc},~{memory},~{dirflag},~{fpsr},~{flags}"(i64 1, ptr nonnull %0) #8, !srcloc !6
  br label %5

5:                                                ; preds = %3, %1
  ret void
}